; Function Attrs: nounwind uwtable
define dso_local void @SetMatViewPopulatedState(ptr noundef readonly captures(none) %0, i1 noundef zeroext %1) local_unnamed_addr #0 {
  %3 = tail call ptr @table_open(i32 noundef 1259, i32 noundef 3) #8
  %4 = getelementptr inbounds nuw i8, ptr %0, i64 72
  %5 = load i32, ptr %4, align 8
  %6 = zext i32 %5 to i64
  %7 = tail call ptr @SearchSysCacheCopy(i32 noundef 57, i64 noundef %6, i64 noundef 0, i64 noundef 0, i64 noundef 0) #8
  %.not = icmp eq ptr %7, null
  br i1 %.not, label %8, label %12

8:                                                ; preds = %2
  %9 = tail call zeroext i1 @errstart_cold(i32 noundef 21, ptr noundef null) #9
  tail call void @llvm.assume(i1 %9)
  %10 = load i32, ptr %4, align 8
  %11 = tail call i32 (ptr, ...) @errmsg_internal(ptr noundef nonnull @.str, i32 noundef %10) #8
  tail call void @errfinish(ptr noundef nonnull @.str.1, i32 noundef 96, ptr noundef nonnull @__func__.SetMatViewPopulatedState) #8
  unreachable

12:                                               ; preds = %2
  %13 = zext i1 %1 to i8
  %14 = getelementptr i8, ptr %7, i64 16
  %.val = load ptr, ptr %14, align 8
  %15 = getelementptr inbounds nuw i8, ptr %.val, i64 22
  %16 = load i8, ptr %15, align 2
  %17 = zext i8 %16 to i64
  %18 = getelementptr inbounds nuw i8, ptr %.val, i64 %17
  %19 = getelementptr inbounds nuw i8, ptr %18, i64 125
  store i8 %13, ptr %19, align 1
  %20 = getelementptr inbounds nuw i8, ptr %7, i64 4
  tail call void @CatalogTupleUpdate(ptr noundef %3, ptr noundef nonnull %20, ptr noundef nonnull %7) #8
  tail call void @heap_freetuple(ptr noundef nonnull %7) #8
  tail call void @table_close(ptr noundef %3, i32 noundef 3) #8
  tail call void @CommandCounterIncrement() #8
  ret void
}